; Function Attrs: mustprogress uwtable
define noundef range(i64 -2, 4611686018427387904) i64 @_ZN6Assimp6Base646DecodeERKNSt7__cxx1112basic_stringIcSt11char_traitsIcESaIcEEERSt6vectorIhSaIhEE(ptr noundef nonnull readonly align 8 captures(none) dereferenceable(32) %0, ptr noundef nonnull align 8 dereferenceable(24) %1) local_unnamed_addr #0 {
  %3 = alloca ptr, align 8
  call void @llvm.lifetime.start.p0(i64 8, ptr nonnull %3) #17
  store ptr null, ptr %3, align 8
  %4 = load ptr, ptr %0, align 8
  %5 = getelementptr inbounds nuw i8, ptr %0, i64 8
  %6 = load i64, ptr %5, align 8
  %7 = call noundef i64 @_ZN6Assimp6Base646DecodeEPKcmRPh(ptr noundef %4, i64 noundef %6, ptr noundef nonnull align 8 dereferenceable(8) %3)
  %8 = load ptr, ptr %3, align 8
  %9 = icmp eq ptr %8, null
  br i1 %9, label %12, label %10

10:                                               ; preds = %2
  %11 = getelementptr inbounds nuw i8, ptr %8, i64 %7
  tail call void @_ZNSt6vectorIhSaIhEE13_M_assign_auxIPhEEvT_S4_St20forward_iterator_tag(ptr noundef nonnull align 8 dereferenceable(24) %1, ptr noundef nonnull %8, ptr noundef nonnull %11)
  tail call void @_ZdaPv(ptr noundef nonnull %8) #16
  br label %12

12:                                               ; preds = %10, %2
  %.0 = phi i64 [ 0, %2 ], [ %7, %10 ]
  call void @llvm.lifetime.end.p0(i64 8, ptr nonnull %3) #17
  ret i64 %.0
}